; ModuleID = '56/717.c'
source_filename = "56/717.c"
target datalayout = "e-m:e-p270:32:32-p271:32:32-p272:64:64-i64:64-f80:128-n8:16:32:64-S128"
target triple = "x86_64-pc-linux-gnu"

@.str = private unnamed_addr constant [3 x i8] c"%d\00", align 1

; Function Attrs: noinline nounwind uwtable
define dso_local void @main() #0 {
  %1 = alloca [9 x i32], align 16
  %2 = alloca i32, align 4
  %3 = alloca i32, align 4
  %4 = alloca i32, align 4
  %5 = call i32 (i8*, ...) @__isoc99_scanf(i8* getelementptr inbounds ([3 x i8], [3 x i8]* @.str, i64 0, i64 0), i32* %2)
  %6 = load i32, i32* %2, align 4
  store i32 %6, i32* %3, align 4
  store i32 0, i32* %4, align 4
  br label %7

7:                                                ; preds = %18, %0
  %8 = load i32, i32* %4, align 4
  %9 = icmp slt i32 %8, 9
  br i1 %9, label %10, label %21

10:                                               ; preds = %7
  %11 = load i32, i32* %3, align 4
  %12 = srem i32 %11, 10
  %13 = load i32, i32* %4, align 4
  %14 = sext i32 %13 to i64
  %15 = getelementptr inbounds [9 x i32], [9 x i32]* %1, i64 0, i64 %14
  store i32 %12, i32* %15, align 4
  %16 = load i32, i32* %3, align 4
  %17 = sdiv i32 %16, 10
  store i32 %17, i32* %3, align 4
  br label %18

18:                                               ; preds = %10
  %19 = load i32, i32* %4, align 4
  %20 = add nsw i32 %19, 1
  store i32 %20, i32* %4, align 4
  br label %7

21:                                               ; preds = %7
  store i32 1, i32* %4, align 4
  br label %22

22:                                               ; preds = %40, %21
  %23 = load i32, i32* %4, align 4
  %24 = icmp slt i32 %23, 9
  br i1 %24, label %25, label %43

25:                                               ; preds = %22
  %26 = load i32, i32* %4, align 4
  %27 = sub nsw i32 %26, 1
  %28 = sext i32 %27 to i64
  %29 = getelementptr inbounds [9 x i32], [9 x i32]* %1, i64 0, i64 %28
  %30 = load i32, i32* %29, align 4
  %31 = mul nsw i32 %30, 10
  %32 = load i32, i32* %4, align 4
  %33 = sext i32 %32 to i64
  %34 = getelementptr inbounds [9 x i32], [9 x i32]* %1, i64 0, i64 %33
  %35 = load i32, i32* %34, align 4
  %36 = add nsw i32 %31, %35
  %37 = load i32, i32* %4, align 4
  %38 = sext i32 %37 to i64
  %39 = getelementptr inbounds [9 x i32], [9 x i32]* %1, i64 0, i64 %38
  store i32 %36, i32* %39, align 4
  br label %40

40:                                               ; preds = %25
  %41 = load i32, i32* %4, align 4
  %42 = add nsw i32 %41, 1
  store i32 %42, i32* %4, align 4
  br label %22

43:                                               ; preds = %22
  %44 = getelementptr inbounds [9 x i32], [9 x i32]* %1, i64 0, i64 8
  %45 = load i32, i32* %44, align 16
  store i32 %45, i32* %3, align 4
  br label %46

46:                                               ; preds = %50, %43
  %47 = load i32, i32* %3, align 4
  %48 = srem i32 %47, 10
  %49 = icmp eq i32 %48, 0
  br i1 %49, label %50, label %53

50:                                               ; preds = %46
  %51 = load i32, i32* %3, align 4
  %52 = sdiv i32 %51, 10
  store i32 %52, i32* %3, align 4
  br label %46

53:                                               ; preds = %46
  %54 = load i32, i32* %3, align 4
  %55 = call i32 (i8*, ...) @printf(i8* getelementptr inbounds ([3 x i8], [3 x i8]* @.str, i64 0, i64 0), i32 %54)
  ret void
}

declare dso_local i32 @__isoc99_scanf(i8*, ...) #1

declare dso_local i32 @printf(i8*, ...) #1


!llvm.module.flags = !{!0}
!llvm.ident = !{!1}

!0 = !{i32 1, !"wchar_size", i32 4}
!1 = !{!"clang version 10.0.0-4ubuntu1 "}
